; Function Attrs: mustprogress nofree norecurse nounwind willreturn memory(readwrite, inaccessiblemem: none) uwtable
define hidden void @je_emap_merge_commit(ptr noundef readnone captures(none) %0, ptr noundef readnone captures(none) %1, ptr noundef readonly captures(none) %2, ptr noundef %3, ptr noundef readnone captures(none) %4) local_unnamed_addr #5 {
  %6 = getelementptr inbounds nuw i8, ptr %2, i64 8
  %7 = load ptr, ptr %6, align 8, !tbaa !32
  %.not = icmp eq ptr %7, null
  br i1 %.not, label %9, label %8

8:                                                ; preds = %5
  store atomic i64 65302194596872192, ptr %7 release, align 8
  br label %9

9:                                                ; preds = %8, %5
  %10 = getelementptr inbounds nuw i8, ptr %2, i64 24
  %11 = load ptr, ptr %10, align 8, !tbaa !34
  %.not16 = icmp eq ptr %11, null
  %12 = getelementptr inbounds nuw i8, ptr %2, i64 16
  br i1 %.not16, label %15, label %13

13:                                               ; preds = %9
  %14 = load ptr, ptr %12, align 8, !tbaa !33
  store atomic i64 65302194596872192, ptr %14 release, align 8
  br label %15

15:                                               ; preds = %9, %13
  %.0.in = phi ptr [ %10, %13 ], [ %12, %9 ]
  %.0 = load ptr, ptr %.0.in, align 8, !tbaa !28
  %16 = load ptr, ptr %2, align 8, !tbaa !30
  %17 = icmp eq ptr %3, null
  br i1 %17, label %.critedge.i, label %18

18:                                               ; preds = %15
  %.val.i = load i64, ptr %3, align 8, !tbaa !4
  %sh.diff.i = lshr i64 %.val.i, 43
  %19 = and i64 %sh.diff.i, 2
  %20 = lshr i64 %.val.i, 15
  %21 = and i64 %20, 28
  %22 = or disjoint i64 %19, %21
  %23 = or disjoint i64 %22, 65302194596872192
  br label %.critedge.i

.critedge.i:                                      ; preds = %18, %15
  %24 = phi i64 [ %23, %18 ], [ 65302194596872192, %15 ]
  %25 = ptrtoint ptr %3 to i64
  %26 = and i64 %25, 281474976710655
  %27 = or i64 %24, %26
  store atomic i64 %27, ptr %16 release, align 8
  %.not.i = icmp eq ptr %.0, null
  br i1 %.not.i, label %emap_rtree_write_acquired.exit, label %28

28:                                               ; preds = %.critedge.i
  store atomic i64 %27, ptr %.0 release, align 8
  br label %emap_rtree_write_acquired.exit

emap_rtree_write_acquired.exit:                   ; preds = %.critedge.i, %28
  ret void
}